target datalayout = "e-m:e-p270:32:32-p271:32:32-p272:64:64-i64:64-i128:128-f80:128-n8:16:32:64-S128"
target triple = "x86_64-pc-linux-gnu"

@_ZTIN6spdlog9spdlog_exE = dso_local constant { ptr, ptr, ptr } { ptr getelementptr inbounds (ptr, ptr @_ZTVN10__cxxabiv120__si_class_type_infoE, i64 2), ptr @_ZTSN6spdlog9spdlog_exE, ptr @_ZTISt9exception }, align 8
@_ZN6spdlog9spdlog_exC1ERKNSt7__cxx1112basic_stringIcSt11char_traitsIcESaIcEEEi = dso_local unnamed_addr alias void (ptr, ptr, i32), ptr @_ZN6spdlog9spdlog_exC2ERKNSt7__cxx1112basic_stringIcSt11char_traitsIcESaIcEEEi

; Function Attrs: mustprogress noreturn uwtable
define dso_local void @_ZN6spdlog15throw_spdlog_exERKNSt7__cxx1112basic_stringIcSt11char_traitsIcESaIcEEEi(ptr noundef nonnull align 8 dereferenceable(32) %0, i32 noundef %1) #7 personality ptr @__gxx_personality_v0 {
  %3 = alloca ptr, align 8
  %4 = alloca i32, align 4
  %5 = alloca ptr, align 8
  %6 = alloca i32, align 4
  store ptr %0, ptr %3, align 8, !tbaa !11
  store i32 %1, ptr %4, align 4, !tbaa !22
  %7 = call ptr @__cxa_allocate_exception(i64 40) #13
  %8 = load ptr, ptr %3, align 8, !tbaa !11
  %9 = load i32, ptr %4, align 4, !tbaa !22
  invoke void @_ZN6spdlog9spdlog_exC1ERKNSt7__cxx1112basic_stringIcSt11char_traitsIcESaIcEEEi(ptr noundef nonnull align 8 dereferenceable(40) %7, ptr noundef nonnull align 8 dereferenceable(32) %8, i32 noundef %9)
          to label %10 unwind label %11

10:                                               ; preds = %2
  call void @__cxa_throw(ptr %7, ptr @_ZTIN6spdlog9spdlog_exE, ptr @_ZN6spdlog9spdlog_exD2Ev) #28
  unreachable

11:                                               ; preds = %2
  %12 = landingpad { ptr, i32 }
          cleanup
  %13 = extractvalue { ptr, i32 } %12, 0
  store ptr %13, ptr %5, align 8
  %14 = extractvalue { ptr, i32 } %12, 1
  store i32 %14, ptr %6, align 4
  call void @__cxa_free_exception(ptr %7) #13
  br label %15

15:                                               ; preds = %11
  %16 = load ptr, ptr %5, align 8
  %17 = load i32, ptr %6, align 4
  %18 = insertvalue { ptr, i32 } poison, ptr %16, 0
  %19 = insertvalue { ptr, i32 } %18, i32 %17, 1
  resume { ptr, i32 } %19
}